target datalayout = "e-m:e-p270:32:32-p271:32:32-p272:64:64-i64:64-i128:128-f80:128-n8:16:32:64-S128"
target triple = "x86_64-pc-linux-gnu"

%"class.cv::_InputArray" = type { i32, ptr, %"class.cv::Size_" }
%"class.cv::Size_" = type { i32, i32 }
%"class.cv::Mat" = type { i32, i32, i32, i32, ptr, ptr, ptr, ptr, ptr, ptr, %"struct.cv::MatSize", %"struct.cv::MatStep" }
%"struct.cv::MatSize" = type { ptr }
%"struct.cv::MatStep" = type { ptr, [2 x i64] }

; Function Attrs: inlinehint mustprogress nounwind uwtable
define linkonce_odr hidden noundef nonnull align 4 dereferenceable(4) ptr @_ZN2cv3Mat2atIfEERT_ii(ptr noundef nonnull align 8 dereferenceable(96) %0, i32 noundef %1, i32 noundef %2) #6 comdat align 2 {
  %4 = alloca ptr, align 8
  %5 = alloca i32, align 4
  %6 = alloca i32, align 4
  store ptr %0, ptr %4, align 8, !tbaa !47
  store i32 %1, ptr %5, align 4, !tbaa !35
  store i32 %2, ptr %6, align 4, !tbaa !35
  %7 = load ptr, ptr %4, align 8
  %8 = getelementptr inbounds nuw %"class.cv::Mat", ptr %7, i32 0, i32 4
  %9 = load ptr, ptr %8, align 8, !tbaa !57
  %10 = getelementptr inbounds nuw %"class.cv::Mat", ptr %7, i32 0, i32 11
  %11 = getelementptr inbounds nuw %"struct.cv::MatStep", ptr %10, i32 0, i32 0
  %12 = load ptr, ptr %11, align 8, !tbaa !66
  %13 = getelementptr inbounds i64, ptr %12, i64 0
  %14 = load i64, ptr %13, align 8, !tbaa !67
  %15 = load i32, ptr %5, align 4, !tbaa !35
  %16 = sext i32 %15 to i64
  %17 = mul i64 %14, %16
  %18 = getelementptr inbounds nuw i8, ptr %9, i64 %17
  %19 = load i32, ptr %6, align 4, !tbaa !35
  %20 = sext i32 %19 to i64
  %21 = getelementptr inbounds float, ptr %18, i64 %20
  ret ptr %21
}

; Function Attrs: inlinehint mustprogress nounwind uwtable
define linkonce_odr hidden noundef nonnull align 1 dereferenceable(1) ptr @_ZN2cv3Mat2atIhEERT_ii(ptr noundef nonnull align 8 dereferenceable(96) %0, i32 noundef %1, i32 noundef %2) #6 comdat align 2 {
  %4 = alloca ptr, align 8
  %5 = alloca i32, align 4
  %6 = alloca i32, align 4
  store ptr %0, ptr %4, align 8, !tbaa !47
  store i32 %1, ptr %5, align 4, !tbaa !35
  store i32 %2, ptr %6, align 4, !tbaa !35
  %7 = load ptr, ptr %4, align 8
  %8 = getelementptr inbounds nuw %"class.cv::Mat", ptr %7, i32 0, i32 4
  %9 = load ptr, ptr %8, align 8, !tbaa !57
  %10 = getelementptr inbounds nuw %"class.cv::Mat", ptr %7, i32 0, i32 11
  %11 = getelementptr inbounds nuw %"struct.cv::MatStep", ptr %10, i32 0, i32 0
  %12 = load ptr, ptr %11, align 8, !tbaa !66
  %13 = getelementptr inbounds i64, ptr %12, i64 0
  %14 = load i64, ptr %13, align 8, !tbaa !67
  %15 = load i32, ptr %5, align 4, !tbaa !35
  %16 = sext i32 %15 to i64
  %17 = mul i64 %14, %16
  %18 = getelementptr inbounds nuw i8, ptr %9, i64 %17
  %19 = load i32, ptr %6, align 4, !tbaa !35
  %20 = sext i32 %19 to i64
  %21 = getelementptr inbounds i8, ptr %18, i64 %20
  ret ptr %21
}

; Function Attrs: inlinehint mustprogress nounwind uwtable
define linkonce_odr hidden noundef ptr @_ZNK2cv11_InputArray6getObjEv(ptr noundef nonnull align 8 dereferenceable(24) %0) #6 comdat align 2 {
  %2 = alloca ptr, align 8
  store ptr %0, ptr %2, align 8, !tbaa !52
  %3 = load ptr, ptr %2, align 8
  %4 = getelementptr inbounds nuw %"class.cv::_InputArray", ptr %3, i32 0, i32 1
  %5 = load ptr, ptr %4, align 8, !tbaa !54
  ret ptr %5
}

; Function Attrs: mustprogress uwtable
define void @_ZN2cv16structured_light34SinusoidalPatternProfilometry_Impl19computeFapsPhaseMapERKNS_11_InputArrayES4_S4_S4_S4_RKNS_12_OutputArrayE(ptr noundef nonnull align 8 dereferenceable(88) %0, ptr noundef nonnull align 8 dereferenceable(24) %1, ptr noundef nonnull align 8 dereferenceable(24) %2, ptr noundef nonnull align 8 dereferenceable(24) %3, ptr noundef nonnull align 8 dereferenceable(24) %4, ptr noundef nonnull align 8 dereferenceable(24) %5, ptr noundef nonnull align 8 dereferenceable(24) %6) #5 align 2 {
  %8 = alloca ptr, align 8
  %9 = alloca ptr, align 8
  %10 = alloca ptr, align 8
  %11 = alloca ptr, align 8
  %12 = alloca ptr, align 8
  %13 = alloca ptr, align 8
  %14 = alloca ptr, align 8
  %15 = alloca ptr, align 8
  %16 = alloca ptr, align 8
  %17 = alloca ptr, align 8
  %18 = alloca ptr, align 8
  %19 = alloca ptr, align 8
  %20 = alloca ptr, align 8
  %21 = alloca i32, align 4
  %22 = alloca i32, align 4
  %23 = alloca i32, align 4
  %24 = alloca i32, align 4
  %25 = alloca i32, align 4
  %26 = alloca float, align 4
  %27 = alloca float, align 4
  store ptr %0, ptr %8, align 8, !tbaa !69
  store ptr %1, ptr %9, align 8, !tbaa !52
  store ptr %2, ptr %10, align 8, !tbaa !52
  store ptr %3, ptr %11, align 8, !tbaa !52
  store ptr %4, ptr %12, align 8, !tbaa !52
  store ptr %5, ptr %13, align 8, !tbaa !52
  store ptr %6, ptr %14, align 8, !tbaa !45
  call void @llvm.lifetime.start.p0(i64 8, ptr %15) #3
  %28 = load ptr, ptr %9, align 8, !tbaa !52
  %29 = call noundef ptr @_ZNK2cv11_InputArray6getObjEv(ptr noundef nonnull align 8 dereferenceable(24) %28)
  store ptr %29, ptr %15, align 8, !tbaa !47
  call void @llvm.lifetime.start.p0(i64 8, ptr %16) #3
  %30 = load ptr, ptr %10, align 8, !tbaa !52
  %31 = call noundef ptr @_ZNK2cv11_InputArray6getObjEv(ptr noundef nonnull align 8 dereferenceable(24) %30)
  store ptr %31, ptr %16, align 8, !tbaa !47
  call void @llvm.lifetime.start.p0(i64 8, ptr %17) #3
  %32 = load ptr, ptr %11, align 8, !tbaa !52
  %33 = call noundef ptr @_ZNK2cv11_InputArray6getObjEv(ptr noundef nonnull align 8 dereferenceable(24) %32)
  store ptr %33, ptr %17, align 8, !tbaa !47
  call void @llvm.lifetime.start.p0(i64 8, ptr %18) #3
  %34 = load ptr, ptr %12, align 8, !tbaa !52
  %35 = call noundef ptr @_ZNK2cv11_InputArray6getObjEv(ptr noundef nonnull align 8 dereferenceable(24) %34)
  store ptr %35, ptr %18, align 8, !tbaa !47
  call void @llvm.lifetime.start.p0(i64 8, ptr %19) #3
  %36 = load ptr, ptr %14, align 8, !tbaa !45
  %37 = call noundef ptr @_ZNK2cv11_InputArray6getObjEv(ptr noundef nonnull align 8 dereferenceable(24) %36)
  store ptr %37, ptr %19, align 8, !tbaa !47
  call void @llvm.lifetime.start.p0(i64 8, ptr %20) #3
  %38 = load ptr, ptr %13, align 8, !tbaa !52
  %39 = call noundef ptr @_ZNK2cv11_InputArray6getObjEv(ptr noundef nonnull align 8 dereferenceable(24) %38)
  store ptr %39, ptr %20, align 8, !tbaa !47
  call void @llvm.lifetime.start.p0(i64 4, ptr %21) #3
  %40 = load ptr, ptr %15, align 8, !tbaa !47
  %41 = getelementptr inbounds nuw %"class.cv::Mat", ptr %40, i32 0, i32 2
  %42 = load i32, ptr %41, align 8, !tbaa !96
  store i32 %42, ptr %21, align 4, !tbaa !35
  call void @llvm.lifetime.start.p0(i64 4, ptr %22) #3
  %43 = load ptr, ptr %15, align 8, !tbaa !47
  %44 = getelementptr inbounds nuw %"class.cv::Mat", ptr %43, i32 0, i32 3
  %45 = load i32, ptr %44, align 4, !tbaa !93
  store i32 %45, ptr %22, align 4, !tbaa !35
  %46 = load ptr, ptr %19, align 8, !tbaa !47
  %47 = call noundef zeroext i1 @_ZNK2cv3Mat5emptyEv(ptr noundef nonnull align 8 dereferenceable(96) %46)
  br i1 %47, label %48, label %52

48:                                               ; preds = %7
  %49 = load ptr, ptr %19, align 8, !tbaa !47
  %50 = load i32, ptr %21, align 4, !tbaa !35
  %51 = load i32, ptr %22, align 4, !tbaa !35
  call void @_ZN2cv3Mat6createEiii(ptr noundef nonnull align 8 dereferenceable(96) %49, i32 noundef %50, i32 noundef %51, i32 noundef 5)
  br label %52

52:                                               ; preds = %48, %7
  call void @llvm.lifetime.start.p0(i64 4, ptr %23) #3
  store i32 0, ptr %23, align 4, !tbaa !35
  br label %53

53:                                               ; preds = %154, %52
  %54 = load i32, ptr %23, align 4, !tbaa !35
  %55 = load i32, ptr %21, align 4, !tbaa !35
  %56 = icmp slt i32 %54, %55
  br i1 %56, label %58, label %57

57:                                               ; preds = %53
  store i32 2, ptr %24, align 4
  call void @llvm.lifetime.end.p0(i64 4, ptr %23) #3
  br label %157

58:                                               ; preds = %53
  call void @llvm.lifetime.start.p0(i64 4, ptr %25) #3
  store i32 0, ptr %25, align 4, !tbaa !35
  br label %59

59:                                               ; preds = %150, %58
  %60 = load i32, ptr %25, align 4, !tbaa !35
  %61 = load i32, ptr %22, align 4, !tbaa !35
  %62 = icmp slt i32 %60, %61
  br i1 %62, label %64, label %63

63:                                               ; preds = %59
  store i32 5, ptr %24, align 4
  call void @llvm.lifetime.end.p0(i64 4, ptr %25) #3
  br label %153

64:                                               ; preds = %59
  %65 = load ptr, ptr %20, align 8, !tbaa !47
  %66 = load i32, ptr %23, align 4, !tbaa !35
  %67 = load i32, ptr %25, align 4, !tbaa !35
  %68 = call noundef nonnull align 1 dereferenceable(1) ptr @_ZN2cv3Mat2atIhEERT_ii(ptr noundef nonnull align 8 dereferenceable(96) %65, i32 noundef %66, i32 noundef %67)
  %69 = load i8, ptr %68, align 1, !tbaa !51
  %70 = zext i8 %69 to i32
  %71 = icmp ne i32 %70, 0
  br i1 %71, label %72, label %144

72:                                               ; preds = %64
  call void @llvm.lifetime.start.p0(i64 4, ptr %26) #3
  %73 = load ptr, ptr %18, align 8, !tbaa !47
  %74 = load i32, ptr %23, align 4, !tbaa !35
  %75 = load i32, ptr %25, align 4, !tbaa !35
  %76 = call noundef nonnull align 4 dereferenceable(4) ptr @_ZN2cv3Mat2atIfEERT_ii(ptr noundef nonnull align 8 dereferenceable(96) %73, i32 noundef %74, i32 noundef %75)
  %77 = load float, ptr %76, align 4, !tbaa !77
  %78 = fpext float %77 to double
  %79 = call double @cos(double noundef %78) #3, !tbaa !35
  %80 = fsub double 1.000000e+00, %79
  %81 = load ptr, ptr %15, align 8, !tbaa !47
  %82 = load i32, ptr %23, align 4, !tbaa !35
  %83 = load i32, ptr %25, align 4, !tbaa !35
  %84 = call noundef nonnull align 4 dereferenceable(4) ptr @_ZN2cv3Mat2atIfEERT_ii(ptr noundef nonnull align 8 dereferenceable(96) %81, i32 noundef %82, i32 noundef %83)
  %85 = load float, ptr %84, align 4, !tbaa !77
  %86 = fpext float %85 to double
  %87 = load ptr, ptr %17, align 8, !tbaa !47
  %88 = load i32, ptr %23, align 4, !tbaa !35
  %89 = load i32, ptr %25, align 4, !tbaa !35
  %90 = call noundef nonnull align 4 dereferenceable(4) ptr @_ZN2cv3Mat2atIfEERT_ii(ptr noundef nonnull align 8 dereferenceable(96) %87, i32 noundef %88, i32 noundef %89)
  %91 = load float, ptr %90, align 4, !tbaa !77
  %92 = fpext float %91 to double
  %93 = call double @cos(double noundef %92) #3, !tbaa !35
  %94 = fsub double 1.000000e+00, %93
  %95 = load ptr, ptr %16, align 8, !tbaa !47
  %96 = load i32, ptr %23, align 4, !tbaa !35
  %97 = load i32, ptr %25, align 4, !tbaa !35
  %98 = call noundef nonnull align 4 dereferenceable(4) ptr @_ZN2cv3Mat2atIfEERT_ii(ptr noundef nonnull align 8 dereferenceable(96) %95, i32 noundef %96, i32 noundef %97)
  %99 = load float, ptr %98, align 4, !tbaa !77
  %100 = fpext float %99 to double
  %101 = fmul double %94, %100
  %102 = call double @llvm.fmuladd.f64(double %80, double %86, double %101)
  %103 = fptrunc double %102 to float
  store float %103, ptr %26, align 4, !tbaa !77
  call void @llvm.lifetime.start.p0(i64 4, ptr %27) #3
  %104 = load ptr, ptr %17, align 8, !tbaa !47
  %105 = load i32, ptr %23, align 4, !tbaa !35
  %106 = load i32, ptr %25, align 4, !tbaa !35
  %107 = call noundef nonnull align 4 dereferenceable(4) ptr @_ZN2cv3Mat2atIfEERT_ii(ptr noundef nonnull align 8 dereferenceable(96) %104, i32 noundef %105, i32 noundef %106)
  %108 = load float, ptr %107, align 4, !tbaa !77
  %109 = fpext float %108 to double
  %110 = call double @sin(double noundef %109) #3, !tbaa !35
  %111 = load ptr, ptr %16, align 8, !tbaa !47
  %112 = load i32, ptr %23, align 4, !tbaa !35
  %113 = load i32, ptr %25, align 4, !tbaa !35
  %114 = call noundef nonnull align 4 dereferenceable(4) ptr @_ZN2cv3Mat2atIfEERT_ii(ptr noundef nonnull align 8 dereferenceable(96) %111, i32 noundef %112, i32 noundef %113)
  %115 = load float, ptr %114, align 4, !tbaa !77
  %116 = fpext float %115 to double
  %117 = load ptr, ptr %18, align 8, !tbaa !47
  %118 = load i32, ptr %23, align 4, !tbaa !35
  %119 = load i32, ptr %25, align 4, !tbaa !35
  %120 = call noundef nonnull align 4 dereferenceable(4) ptr @_ZN2cv3Mat2atIfEERT_ii(ptr noundef nonnull align 8 dereferenceable(96) %117, i32 noundef %118, i32 noundef %119)
  %121 = load float, ptr %120, align 4, !tbaa !77
  %122 = fpext float %121 to double
  %123 = call double @sin(double noundef %122) #3, !tbaa !35
  %124 = load ptr, ptr %15, align 8, !tbaa !47
  %125 = load i32, ptr %23, align 4, !tbaa !35
  %126 = load i32, ptr %25, align 4, !tbaa !35
  %127 = call noundef nonnull align 4 dereferenceable(4) ptr @_ZN2cv3Mat2atIfEERT_ii(ptr noundef nonnull align 8 dereferenceable(96) %124, i32 noundef %125, i32 noundef %126)
  %128 = load float, ptr %127, align 4, !tbaa !77
  %129 = fpext float %128 to double
  %130 = fmul double %123, %129
  %131 = fneg double %130
  %132 = call double @llvm.fmuladd.f64(double %110, double %116, double %131)
  %133 = fptrunc double %132 to float
  store float %133, ptr %27, align 4, !tbaa !77
  %134 = load float, ptr %26, align 4, !tbaa !77
  %135 = fpext float %134 to double
  %136 = load float, ptr %27, align 4, !tbaa !77
  %137 = fpext float %136 to double
  %138 = call double @atan2(double noundef %135, double noundef %137) #3, !tbaa !35
  %139 = fptrunc double %138 to float
  %140 = load ptr, ptr %19, align 8, !tbaa !47
  %141 = load i32, ptr %23, align 4, !tbaa !35
  %142 = load i32, ptr %25, align 4, !tbaa !35
  %143 = call noundef nonnull align 4 dereferenceable(4) ptr @_ZN2cv3Mat2atIfEERT_ii(ptr noundef nonnull align 8 dereferenceable(96) %140, i32 noundef %141, i32 noundef %142)
  store float %139, ptr %143, align 4, !tbaa !77
  call void @llvm.lifetime.end.p0(i64 4, ptr %27) #3
  call void @llvm.lifetime.end.p0(i64 4, ptr %26) #3
  br label %149

144:                                              ; preds = %64
  %145 = load ptr, ptr %19, align 8, !tbaa !47
  %146 = load i32, ptr %23, align 4, !tbaa !35
  %147 = load i32, ptr %25, align 4, !tbaa !35
  %148 = call noundef nonnull align 4 dereferenceable(4) ptr @_ZN2cv3Mat2atIfEERT_ii(ptr noundef nonnull align 8 dereferenceable(96) %145, i32 noundef %146, i32 noundef %147)
  store float 0.000000e+00, ptr %148, align 4, !tbaa !77
  br label %149

149:                                              ; preds = %144, %72
  br label %150

150:                                              ; preds = %149
  %151 = load i32, ptr %25, align 4, !tbaa !35
  %152 = add nsw i32 %151, 1
  store i32 %152, ptr %25, align 4, !tbaa !35
  br label %59, !llvm.loop !147

153:                                              ; preds = %63
  br label %154

154:                                              ; preds = %153
  %155 = load i32, ptr %23, align 4, !tbaa !35
  %156 = add nsw i32 %155, 1
  store i32 %156, ptr %23, align 4, !tbaa !35
  br label %53, !llvm.loop !148

157:                                              ; preds = %57
  call void @llvm.lifetime.end.p0(i64 4, ptr %22) #3
  call void @llvm.lifetime.end.p0(i64 4, ptr %21) #3
  call void @llvm.lifetime.end.p0(i64 8, ptr %20) #3
  call void @llvm.lifetime.end.p0(i64 8, ptr %19) #3
  call void @llvm.lifetime.end.p0(i64 8, ptr %18) #3
  call void @llvm.lifetime.end.p0(i64 8, ptr %17) #3
  call void @llvm.lifetime.end.p0(i64 8, ptr %16) #3
  call void @llvm.lifetime.end.p0(i64 8, ptr %15) #3
  ret void
}