; Function Attrs: mustprogress uwtable
define void @_ZN2cv16structured_light34SinusoidalPatternProfilometry_Impl19computeFapsPhaseMapERKNS_11_InputArrayES4_S4_S4_S4_RKNS_12_OutputArrayE(ptr nonnull readnone align 8 captures(none) %0, ptr noundef nonnull readonly align 8 captures(none) dereferenceable(24) %1, ptr noundef nonnull readonly align 8 captures(none) dereferenceable(24) %2, ptr noundef nonnull readonly align 8 captures(none) dereferenceable(24) %3, ptr noundef nonnull readonly align 8 captures(none) dereferenceable(24) %4, ptr noundef nonnull readonly align 8 captures(none) dereferenceable(24) %5, ptr noundef nonnull readonly align 8 captures(none) dereferenceable(24) %6) local_unnamed_addr #7 align 2 {
  %8 = getelementptr inbounds nuw i8, ptr %1, i64 8
  %9 = load ptr, ptr %8, align 8, !tbaa !34
  %10 = getelementptr inbounds nuw i8, ptr %2, i64 8
  %11 = load ptr, ptr %10, align 8, !tbaa !34
  %12 = getelementptr inbounds nuw i8, ptr %3, i64 8
  %13 = load ptr, ptr %12, align 8, !tbaa !34
  %14 = getelementptr inbounds nuw i8, ptr %4, i64 8
  %15 = load ptr, ptr %14, align 8, !tbaa !34
  %16 = getelementptr inbounds nuw i8, ptr %6, i64 8
  %17 = load ptr, ptr %16, align 8, !tbaa !34
  %18 = getelementptr inbounds nuw i8, ptr %5, i64 8
  %19 = load ptr, ptr %18, align 8, !tbaa !34
  %20 = getelementptr inbounds nuw i8, ptr %9, i64 8
  %21 = load i32, ptr %20, align 8, !tbaa !96
  %22 = getelementptr inbounds nuw i8, ptr %9, i64 12
  %23 = load i32, ptr %22, align 4, !tbaa !95
  %24 = tail call noundef zeroext i1 @_ZNK2cv3Mat5emptyEv(ptr noundef nonnull align 8 dereferenceable(96) %17)
  br i1 %24, label %25, label %26

25:                                               ; preds = %7
  tail call void @_ZN2cv3Mat6createEiii(ptr noundef nonnull align 8 dereferenceable(96) %17, i32 noundef %21, i32 noundef %23, i32 noundef 5)
  br label %26

26:                                               ; preds = %25, %7
  %27 = icmp sgt i32 %21, 0
  br i1 %27, label %.preheader.lr.ph, label %._crit_edge55

.preheader.lr.ph:                                 ; preds = %26
  %28 = icmp sgt i32 %23, 0
  %29 = getelementptr inbounds nuw i8, ptr %15, i64 16
  %30 = getelementptr inbounds nuw i8, ptr %15, i64 72
  %31 = getelementptr inbounds nuw i8, ptr %9, i64 16
  %32 = getelementptr inbounds nuw i8, ptr %9, i64 72
  %33 = getelementptr inbounds nuw i8, ptr %13, i64 16
  %34 = getelementptr inbounds nuw i8, ptr %13, i64 72
  %35 = getelementptr inbounds nuw i8, ptr %11, i64 16
  %36 = getelementptr inbounds nuw i8, ptr %11, i64 72
  %37 = getelementptr inbounds nuw i8, ptr %17, i64 16
  %38 = getelementptr inbounds nuw i8, ptr %17, i64 72
  br i1 %28, label %.preheader.lr.ph.split.us, label %._crit_edge55

.preheader.lr.ph.split.us:                        ; preds = %.preheader.lr.ph
  %39 = getelementptr inbounds nuw i8, ptr %19, i64 72
  %40 = getelementptr inbounds nuw i8, ptr %19, i64 16
  %41 = load ptr, ptr %40, align 8, !tbaa !39
  %42 = load ptr, ptr %39, align 8, !tbaa !48
  %43 = load i64, ptr %42, align 8, !tbaa !49
  %wide.trip.count61 = zext nneg i32 %21 to i64
  %wide.trip.count = zext nneg i32 %23 to i64
  %44 = load ptr, ptr %37, align 8, !tbaa !39
  %45 = load ptr, ptr %38, align 8, !tbaa !48
  %46 = load i64, ptr %45, align 8, !tbaa !49
  br label %.preheader.us

.preheader.us:                                    ; preds = %._crit_edge.us, %.preheader.lr.ph.split.us
  %indvars.iv58 = phi i64 [ %indvars.iv.next59, %._crit_edge.us ], [ 0, %.preheader.lr.ph.split.us ]
  %47 = mul i64 %43, %indvars.iv58
  %48 = getelementptr inbounds nuw i8, ptr %41, i64 %47
  %49 = mul i64 %46, %indvars.iv58
  %50 = getelementptr inbounds nuw i8, ptr %44, i64 %49
  br label %51

51:                                               ; preds = %.preheader.us, %104
  %indvars.iv = phi i64 [ 0, %.preheader.us ], [ %indvars.iv.next, %104 ]
  %52 = getelementptr inbounds nuw i8, ptr %48, i64 %indvars.iv
  %53 = load i8, ptr %52, align 1, !tbaa !51
  %.not.us = icmp eq i8 %53, 0
  br i1 %.not.us, label %104, label %54

54:                                               ; preds = %51
  %55 = load ptr, ptr %29, align 8, !tbaa !39
  %56 = load ptr, ptr %30, align 8, !tbaa !48
  %57 = load i64, ptr %56, align 8, !tbaa !49
  %58 = mul i64 %57, %indvars.iv58
  %59 = getelementptr inbounds nuw i8, ptr %55, i64 %58
  %60 = getelementptr inbounds nuw float, ptr %59, i64 %indvars.iv
  %61 = load float, ptr %60, align 4, !tbaa !122
  %62 = fpext float %61 to double
  %63 = tail call double @cos(double noundef %62) #32, !tbaa !23
  %64 = fsub double 1.000000e+00, %63
  %65 = load ptr, ptr %31, align 8, !tbaa !39
  %66 = load ptr, ptr %32, align 8, !tbaa !48
  %67 = load i64, ptr %66, align 8, !tbaa !49
  %68 = mul i64 %67, %indvars.iv58
  %69 = getelementptr inbounds nuw i8, ptr %65, i64 %68
  %70 = getelementptr inbounds nuw float, ptr %69, i64 %indvars.iv
  %71 = load float, ptr %70, align 4, !tbaa !122
  %72 = fpext float %71 to double
  %73 = load ptr, ptr %33, align 8, !tbaa !39
  %74 = load ptr, ptr %34, align 8, !tbaa !48
  %75 = load i64, ptr %74, align 8, !tbaa !49
  %76 = mul i64 %75, %indvars.iv58
  %77 = getelementptr inbounds nuw i8, ptr %73, i64 %76
  %78 = getelementptr inbounds nuw float, ptr %77, i64 %indvars.iv
  %79 = load float, ptr %78, align 4, !tbaa !122
  %80 = fpext float %79 to double
  %81 = tail call double @cos(double noundef %80) #32, !tbaa !23
  %82 = fsub double 1.000000e+00, %81
  %83 = load ptr, ptr %35, align 8, !tbaa !39
  %84 = load ptr, ptr %36, align 8, !tbaa !48
  %85 = load i64, ptr %84, align 8, !tbaa !49
  %86 = mul i64 %85, %indvars.iv58
  %87 = getelementptr inbounds nuw i8, ptr %83, i64 %86
  %88 = getelementptr inbounds nuw float, ptr %87, i64 %indvars.iv
  %89 = load float, ptr %88, align 4, !tbaa !122
  %90 = fpext float %89 to double
  %91 = fmul double %82, %90
  %92 = tail call double @llvm.fmuladd.f64(double %64, double %72, double %91)
  %93 = fptrunc double %92 to float
  %94 = tail call double @sin(double noundef %80) #32, !tbaa !23
  %95 = tail call double @sin(double noundef %62) #32, !tbaa !23
  %96 = fneg double %72
  %97 = fmul double %95, %96
  %98 = tail call double @llvm.fmuladd.f64(double %94, double %90, double %97)
  %99 = fptrunc double %98 to float
  %100 = fpext float %93 to double
  %101 = fpext float %99 to double
  %102 = tail call double @atan2(double noundef %100, double noundef %101) #32, !tbaa !23
  %103 = fptrunc double %102 to float
  br label %104

104:                                              ; preds = %51, %54
  %.sink = phi float [ %103, %54 ], [ 0.000000e+00, %51 ]
  %105 = getelementptr inbounds nuw float, ptr %50, i64 %indvars.iv
  store float %.sink, ptr %105, align 4, !tbaa !122
  %indvars.iv.next = add nuw nsw i64 %indvars.iv, 1
  %exitcond.not = icmp eq i64 %indvars.iv.next, %wide.trip.count
  br i1 %exitcond.not, label %._crit_edge.us, label %51, !llvm.loop !156

._crit_edge.us:                                   ; preds = %104
  %indvars.iv.next59 = add nuw nsw i64 %indvars.iv58, 1
  %exitcond62.not = icmp eq i64 %indvars.iv.next59, %wide.trip.count61
  br i1 %exitcond62.not, label %._crit_edge55, label %.preheader.us, !llvm.loop !157

._crit_edge55:                                    ; preds = %._crit_edge.us, %.preheader.lr.ph, %26
  ret void
}